target datalayout = "e-m:e-p270:32:32-p271:32:32-p272:64:64-i64:64-i128:128-f80:128-n8:16:32:64-S128"
target triple = "x86_64-pc-linux-gnu"

%class.ElfSection = type <{ %struct.Elf64_Shdr, ptr, i32, [4 x i8] }>
%struct.Elf64_Shdr = type { i32, i32, i64, i64, i64, i64, i32, i32, i64, i64 }
%class.ElfFile = type { ptr, ptr, ptr, ptr, ptr, ptr, ptr, ptr, i32, ptr, %struct.Elf64_Ehdr }
%struct.Elf64_Ehdr = type { [16 x i8], i16, i16, i32, i64, i64, i64, i32, i16, i16, i16, i16, i16, i16 }
%class.ElfSymbolTable = type <{ ptr, ptr, %class.ElfSection, i32, [4 x i8] }>

; Function Attrs: mustprogress nounwind uwtable
define linkonce_odr hidden void @_ZN14ElfSymbolTable8set_nextEPS_(ptr noundef nonnull align 8 dereferenceable(100) %0, ptr noundef %1) #1 comdat align 2 {
  %3 = alloca ptr, align 8
  %4 = alloca ptr, align 8
  store ptr %0, ptr %3, align 8
  store ptr %1, ptr %4, align 8
  %5 = load ptr, ptr %3, align 8
  %6 = load ptr, ptr %4, align 8
  %7 = getelementptr inbounds %class.ElfSymbolTable, ptr %5, i32 0, i32 0
  store ptr %6, ptr %7, align 8
  ret void
}

; Function Attrs: mustprogress nounwind uwtable
define hidden void @_ZN7ElfFile16add_symbol_tableEP14ElfSymbolTable(ptr noundef nonnull align 8 dereferenceable(144) %0, ptr noundef %1) #1 align 2 {
  %3 = alloca ptr, align 8
  %4 = alloca ptr, align 8
  store ptr %0, ptr %3, align 8
  store ptr %1, ptr %4, align 8
  %5 = load ptr, ptr %3, align 8
  %6 = getelementptr inbounds %class.ElfFile, ptr %5, i32 0, i32 4
  %7 = load ptr, ptr %6, align 8
  %8 = icmp eq ptr %7, null
  br i1 %8, label %9, label %12

9:                                                ; preds = %2
  %10 = load ptr, ptr %4, align 8
  %11 = getelementptr inbounds %class.ElfFile, ptr %5, i32 0, i32 4
  store ptr %10, ptr %11, align 8
  br label %18

12:                                               ; preds = %2
  %13 = load ptr, ptr %4, align 8
  %14 = getelementptr inbounds %class.ElfFile, ptr %5, i32 0, i32 4
  %15 = load ptr, ptr %14, align 8
  call void @_ZN14ElfSymbolTable8set_nextEPS_(ptr noundef nonnull align 8 dereferenceable(100) %13, ptr noundef %15)
  %16 = load ptr, ptr %4, align 8
  %17 = getelementptr inbounds %class.ElfFile, ptr %5, i32 0, i32 4
  store ptr %16, ptr %17, align 8
  br label %18

18:                                               ; preds = %12, %9
  ret void
}